Certificate:
    Data:
        Version: 3 (0x2)
        Serial Number: 2 (0x2)
    Signature Algorithm: sha256WithRSAEncryption
        Issuer: C=CN, ST=Beijing, L=Beijing, O=P.R.O, OU=IT, CN=caroot.libpro.org
        Validity
            Not Before: May 20 00:00:00 2018 GMT
            Not After : May 20 00:00:00 2028 GMT
        Subject: C=CN, ST=Beijing, L=Beijing, O=P.R.O, OU=IT, CN=ca.libpro.org
        Subject Public Key Info:
            Public Key Algorithm: rsaEncryption
                Public-Key: (2048 bit)
                Modulus:
                    00:c4:0d:02:68:1f:fb:23:47:22:2f:0c:9c:d3:17:
                    e8:08:97:6a:b5:fa:1d:de:f2:00:b6:fe:77:8f:61:
                    b5:94:7f:a6:19:43:a4:ff:5a:e9:c5:41:71:86:35:
                    25:24:c0:38:0c:ae:e8:a8:bc:ac:9f:54:97:47:a1:
                    cd:d9:f1:11:ff:bc:1b:83:8c:de:0f:c5:62:25:a6:
                    65:83:32:e8:e7:dc:6f:69:2c:b9:9b:25:ea:19:e9:
                    0d:2f:14:da:d0:0f:a0:98:2d:1f:c3:b7:19:82:ef:
                    95:15:b6:88:d4:ee:c5:64:b5:74:99:f5:ec:fe:f5:
                    8d:2b:58:c9:9e:98:95:33:49:dd:d3:e3:be:62:c4:
                    17:a9:e6:96:36:b2:21:4b:36:ef:03:92:d3:d7:b0:
                    d5:a5:01:7e:a7:9a:52:db:29:64:8a:d8:e3:5d:e1:
                    b6:e4:ab:98:74:25:98:09:0f:f0:9d:45:2d:61:0e:
                    4c:b3:05:68:2d:ae:31:74:9a:ae:ed:6a:93:1d:cf:
                    03:92:05:9c:c8:37:97:33:c7:09:cb:40:e6:4e:bb:
                    9d:fe:be:44:81:e6:1e:a4:75:f3:19:f0:e4:16:51:
                    35:b5:fd:5b:0b:f9:58:27:39:fc:74:c8:df:c7:18:
                    39:d8:c1:1a:5a:5b:97:0c:46:96:b1:79:f2:9a:7d:
                    9c:07
                Exponent: 65537 (0x10001)
        X509v3 extensions:
            X509v3 Basic Constraints: 
                CA:TRUE
            X509v3 Subject Key Identifier: 
                25:51:37:BC:FE:58:4F:27:CE:7B:35:AC:D1:99:D1:8F:2A:4B:AF:B6
            X509v3 Authority Key Identifier: 
                keyid:96:E5:10:D1:02:19:6D:EF:82:88:7C:B1:60:9D:62:6C:30:F0:44:A3

            X509v3 Subject Alternative Name: 
                DNS:libpro.org, DNS:www.libpro.org, DNS:*.libpro.org
    Signature Algorithm: sha256WithRSAEncryption
         73:ce:0f:75:ca:6c:a0:56:75:e9:f5:e4:ac:10:0a:0e:97:88:
         ae:da:10:2e:00:7d:b4:dd:a5:8e:90:4e:50:6e:f1:dc:7c:d8:
         65:4f:c1:74:9c:24:1e:cd:19:c8:a5:3a:0b:c3:c1:61:b9:1a:
         f6:fd:a4:80:31:a3:be:f7:9d:11:82:7f:33:1b:7b:d4:21:bc:
         8a:0c:0b:21:63:fa:7b:4e:67:61:21:88:ef:66:4e:74:d2:5a:
         01:80:ec:b3:61:16:13:7b:15:c1:39:80:94:10:eb:87:66:c8:
         17:6e:96:b6:b1:db:0e:a3:3e:0e:06:f7:73:70:06:1e:6d:be:
         32:5a:34:7c:d7:27:de:54:13:6a:d9:0c:6b:6b:a8:8d:66:4e:
         ab:b8:e6:54:c8:33:86:9a:83:92:70:3c:c1:30:b3:a7:d4:e6:
         60:94:d0:02:4c:b1:ac:e4:c6:18:b9:69:5d:b4:6a:8d:04:03:
         38:69:cb:45:eb:bd:ea:85:ce:93:6d:da:02:b4:8f:b9:52:d8:
         ee:2d:7f:59:ed:91:62:97:5f:dd:85:1c:94:c1:00:78:ad:05:
         53:ca:3d:60:a0:99:67:41:fc:f0:25:95:97:15:10:fc:4a:68:
         1f:33:a3:ce:85:7a:d4:68:ba:f3:b0:f8:39:cc:c0:42:08:e7:
         4e:b9:0c:6d
-----BEGIN CERTIFICATE-----
MIID0jCCArqgAwIBAgIBAjANBgkqhkiG9w0BAQsFADBqMQswCQYDVQQGEwJDTjEQ
MA4GA1UECAwHQmVpamluZzEQMA4GA1UEBwwHQmVpamluZzEOMAwGA1UECgwFUC5S
Lk8xCzAJBgNVBAsMAklUMRowGAYDVQQDDBFjYXJvb3QubGlicHJvLm9yZzAeFw0x
ODA1MjAwMDAwMDBaFw0yODA1MjAwMDAwMDBaMGYxCzAJBgNVBAYTAkNOMRAwDgYD
VQQIDAdCZWlqaW5nMRAwDgYDVQQHDAdCZWlqaW5nMQ4wDAYDVQQKDAVQLlIuTzEL
MAkGA1UECwwCSVQxFjAUBgNVBAMMDWNhLmxpYnByby5vcmcwggEiMA0GCSqGSIb3
DQEBAQUAA4IBDwAwggEKAoIBAQDEDQJoH/sjRyIvDJzTF+gIl2q1+h3e8gC2/neP
YbWUf6YZQ6T/WunFQXGGNSUkwDgMruiovKyfVJdHoc3Z8RH/vBuDjN4PxWIlpmWD
Mujn3G9pLLmbJeoZ6Q0vFNrQD6CYLR/DtxmC75UVtojU7sVktXSZ9ez+9Y0rWMme
mJUzSd3T475ixBep5pY2siFLNu8DktPXsNWlAX6nmlLbKWSK2ONd4bbkq5h0JZgJ
D/CdRS1hDkyzBWgtrjF0mq7tapMdzwOSBZzIN5czxwnLQOZOu53+vkSB5h6kdfMZ
8OQWUTW1/VsL+VgnOfx0yN/HGDnYwRpaW5cMRpaxefKafZwHAgMBAAGjgYYwgYMw
DAYDVR0TBAUwAwEB/zAdBgNVHQ4EFgQUJVE3vP5YTyfOezWs0ZnRjypLr7YwHwYD
VR0jBBgwFoAUluUQ0QIZbe+CiHyxYJ1ibDDwRKMwMwYDVR0RBCwwKoIKbGlicHJv
Lm9yZ4IOd3d3LmxpYnByby5vcmeCDCoubGlicHJvLm9yZzANBgkqhkiG9w0BAQsF
AAOCAQEAc84PdcpsoFZ16fXkrBAKDpeIrtoQLgB9tN2ljpBOUG7x3HzYZU/BdJwk
Hs0ZyKU6C8PBYbka9v2kgDGjvvedEYJ/Mxt71CG8igwLIWP6e05nYSGI72ZOdNJa
AYDss2EWE3sVwTmAlBDrh2bIF26WtrHbDqM+Dgb3c3AGHm2+Mlo0fNcn3lQTatkM
a2uojWZOq7jmVMgzhpqDknA8wTCzp9TmYJTQAkyxrOTGGLlpXbRqjQQDOGnLReu9
6oXOk23aArSPuVLY7i1/We2RYpdf3YUclMEAeK0FU8o9YKCZZ0H88CWVlxUQ/Epo
HzOjzoV61Gi687D4OczAQgjnTrkMbQ==
-----END CERTIFICATE-----
