Certificate:
    Data:
        Version: 3 (0x2)
        Serial Number: 2 (0x2)
    Signature Algorithm: sha256WithRSAEncryption
        Issuer: C=CN, ST=Beijing, L=Beijing, O=P.R.O., OU=IT, CN=libpronet.org
        Validity
            Not Before: May 20 00:00:00 2020 GMT
            Not After : May 20 00:00:00 2050 GMT
        Subject: C=CN, ST=Beijing, L=Beijing, O=P.R.O., OU=IT, CN=libpronet.org
        Subject Public Key Info:
            Public Key Algorithm: rsaEncryption
                Public-Key: (4096 bit)
                Modulus:
                    00:96:e2:18:3c:85:00:e4:02:f7:d6:91:a5:18:e0:
                    64:05:28:0b:10:fa:7b:31:7a:27:66:d9:74:56:7a:
                    69:44:48:59:2e:6d:75:c5:1e:21:0e:0d:b8:46:f1:
                    50:69:37:1e:c7:ea:ef:6b:07:f3:0a:1c:ab:10:1a:
                    4d:83:24:d2:b3:c0:39:d7:f6:2f:9f:cd:7f:0b:c9:
                    67:88:80:7a:77:c7:d6:33:2c:13:54:6e:6e:07:57:
                    2c:05:00:f2:12:25:be:0b:5c:7f:1e:98:2f:81:fd:
                    91:bb:83:d3:da:32:47:e7:69:3e:c5:f4:60:31:3e:
                    22:23:92:b3:d6:86:d5:b0:0a:6b:fd:58:77:bc:7c:
                    32:c6:05:40:c2:e9:d0:88:5c:4b:b3:48:b4:d8:f4:
                    3d:0a:a2:5e:e4:7e:3e:4d:eb:3f:bf:6a:76:27:fa:
                    7b:79:eb:af:5d:ed:4c:ef:6e:94:f6:5b:46:90:47:
                    d7:ac:e3:7b:b9:55:52:b5:2e:f0:a7:fe:0b:8a:73:
                    4a:9c:33:e3:cc:f2:c3:28:d6:d8:8b:2a:d6:6f:0e:
                    e0:89:2d:5e:48:00:4f:c1:e7:3f:48:ff:b1:87:ca:
                    c1:2c:37:d7:3e:d5:93:86:96:64:7a:ef:f0:6b:ea:
                    d9:d7:8f:93:96:d9:4a:0d:3b:89:be:ef:24:53:0e:
                    21:8d:39:68:86:2f:b3:1c:a9:27:9a:5f:0e:89:8b:
                    cf:0d:e1:85:cc:e3:c5:2e:4c:0d:21:b4:c9:4b:94:
                    52:b9:49:86:3d:30:66:90:c3:ae:62:06:97:17:12:
                    84:8f:44:76:40:e2:82:00:9f:2e:a3:22:11:68:2b:
                    a7:e4:8b:05:cd:0f:35:bd:db:92:d1:c3:00:9f:48:
                    2e:fe:34:12:e6:07:a6:23:05:2d:cf:70:89:16:57:
                    51:af:aa:7a:6b:55:2b:e4:9c:02:47:01:2d:03:32:
                    f8:44:a3:bf:4b:59:97:b7:89:f2:38:d8:b1:98:73:
                    63:32:ee:19:eb:da:b6:d8:97:eb:ab:a7:ac:25:8f:
                    98:2f:94:54:eb:eb:d3:bf:9c:55:74:c7:1f:6f:a9:
                    93:10:d5:93:f0:62:30:a8:1f:7a:af:42:d4:17:64:
                    f6:a1:50:e6:85:aa:7f:6d:d1:66:c2:a7:b5:fd:47:
                    54:37:e1:fb:1b:8d:f3:2f:8d:31:08:d3:e3:0f:1c:
                    82:9d:84:d9:d5:c9:1b:02:e7:18:3f:95:1d:5c:de:
                    7a:c5:be:38:fd:a5:51:45:0c:26:57:2c:7b:3f:a5:
                    96:2b:3a:a7:56:4a:c9:a0:19:d8:87:9e:99:8e:fc:
                    8d:51:26:74:dd:45:1a:02:2e:95:0b:4b:70:62:75:
                    a9:8c:ed
                Exponent: 65537 (0x10001)
        X509v3 extensions:
            X509v3 Basic Constraints: 
                CA:TRUE
            X509v3 Subject Key Identifier: 
                F1:17:F3:69:59:67:5B:F8:9A:1B:A2:3C:91:33:E5:58:D3:8E:55:E6
            X509v3 Authority Key Identifier: 
                keyid:BD:F5:C8:CA:3D:80:38:1E:F0:1D:3C:0F:98:86:6D:F2:1E:A2:2C:C2

            X509v3 Subject Alternative Name: 
                DNS:libpronet.org, DNS:www.libpronet.org, DNS:*.libpronet.org
    Signature Algorithm: sha256WithRSAEncryption
         03:a3:a7:a5:36:df:96:2c:a3:1f:31:c9:6f:e8:e2:22:d6:c3:
         e6:86:db:4e:0f:9b:9c:44:7f:12:01:70:14:6b:6f:2a:fc:f1:
         56:a7:61:6f:7f:b7:e4:91:64:db:48:19:ba:76:f4:10:af:5f:
         3d:a2:70:86:a2:62:01:e4:9e:8c:a6:ad:77:5f:fa:66:09:d4:
         db:f9:a2:53:7b:56:16:c5:eb:a0:c5:a3:0f:96:ec:74:d8:c4:
         1b:2f:86:14:3e:4c:f8:5c:91:d1:ec:6f:14:65:3d:e6:16:65:
         28:78:66:bd:16:f4:80:8d:76:36:bb:a6:1e:e7:25:1a:ad:e2:
         e2:a5:9f:5e:2d:91:d2:f6:06:f3:04:5d:5c:b4:29:8c:1e:15:
         82:f0:db:8b:50:9c:ee:d9:5d:22:a5:f6:cc:22:bf:77:6d:3b:
         a3:66:70:11:e9:b9:39:f8:06:17:5a:5c:67:82:52:51:35:c0:
         a2:10:be:35:de:71:f6:ad:7d:10:98:6f:cc:ee:c3:cc:30:18:
         03:1b:81:27:53:09:a9:e3:e0:e1:1f:18:27:24:7d:cf:d1:87:
         1b:d2:a2:1b:1a:b3:85:f2:26:3b:7c:32:b2:98:f6:e5:8b:cd:
         bb:22:22:1b:e0:f6:82:5c:fb:4f:49:51:57:7e:d9:ce:8f:25:
         c0:94:ee:78:34:51:46:bb:f4:78:99:2d:b9:97:bb:4d:f3:ad:
         67:3a:eb:51:49:f1:04:4b:b5:b4:0f:0c:74:29:9b:88:38:25:
         95:a8:3f:04:f9:12:5e:b7:41:38:91:9e:0a:ba:24:e9:ce:ca:
         07:c2:6f:57:31:c9:60:d0:5f:20:1e:22:a5:59:8e:6d:60:1b:
         5f:c5:0a:f7:aa:75:e7:c6:1f:e2:d5:3c:ed:2c:49:97:50:7e:
         c1:a4:a5:40:81:aa:b8:37:0f:41:2d:49:c2:57:be:aa:08:31:
         eb:f0:ec:40:93:8e:3e:ed:5f:56:a4:b4:85:02:95:b1:60:40:
         2c:67:2b:1f:4a:80:dd:0e:78:1b:51:0e:6c:df:ec:bb:1b:ea:
         5d:ed:2f:2a:94:aa:f6:7d:6a:5f:de:47:32:b8:49:99:4d:49:
         3e:6e:e7:54:45:6b:f4:8f:de:a1:94:63:b0:ad:08:2c:a5:ea:
         c0:a2:0a:f1:ff:44:11:14:cc:61:8e:63:a4:eb:c8:59:77:3b:
         5a:63:30:8a:67:d0:a3:33:e6:1c:64:4f:1c:3e:f7:4f:85:c0:
         7d:8f:68:e9:0b:17:6c:09:f6:df:a8:cc:fe:43:1a:99:3f:de:
         b1:34:b8:21:23:ba:6e:23:19:39:2c:f2:26:f3:b3:9e:92:0c:
         59:46:0a:9c:b1:36:a4:8a
-----BEGIN CERTIFICATE-----
MIIF3TCCA8WgAwIBAgIBAjANBgkqhkiG9w0BAQsFADBnMQswCQYDVQQGEwJDTjEQ
MA4GA1UECAwHQmVpamluZzEQMA4GA1UEBwwHQmVpamluZzEPMA0GA1UECgwGUC5S
Lk8uMQswCQYDVQQLDAJJVDEWMBQGA1UEAwwNbGlicHJvbmV0Lm9yZzAiGA8yMDIw
MDUyMDAwMDAwMFoYDzIwNTAwNTIwMDAwMDAwWjBnMQswCQYDVQQGEwJDTjEQMA4G
A1UECAwHQmVpamluZzEQMA4GA1UEBwwHQmVpamluZzEPMA0GA1UECgwGUC5SLk8u
MQswCQYDVQQLDAJJVDEWMBQGA1UEAwwNbGlicHJvbmV0Lm9yZzCCAiIwDQYJKoZI
hvcNAQEBBQADggIPADCCAgoCggIBAJbiGDyFAOQC99aRpRjgZAUoCxD6ezF6J2bZ
dFZ6aURIWS5tdcUeIQ4NuEbxUGk3Hsfq72sH8wocqxAaTYMk0rPAOdf2L5/NfwvJ
Z4iAenfH1jMsE1RubgdXLAUA8hIlvgtcfx6YL4H9kbuD09oyR+dpPsX0YDE+IiOS
s9aG1bAKa/1Yd7x8MsYFQMLp0IhcS7NItNj0PQqiXuR+Pk3rP79qdif6e3nrr13t
TO9ulPZbRpBH16zje7lVUrUu8Kf+C4pzSpwz48zywyjW2Isq1m8O4IktXkgAT8Hn
P0j/sYfKwSw31z7Vk4aWZHrv8Gvq2dePk5bZSg07ib7vJFMOIY05aIYvsxypJ5pf
DomLzw3hhczjxS5MDSG0yUuUUrlJhj0wZpDDrmIGlxcShI9EdkDiggCfLqMiEWgr
p+SLBc0PNb3bktHDAJ9ILv40EuYHpiMFLc9wiRZXUa+qemtVK+ScAkcBLQMy+ESj
v0tZl7eJ8jjYsZhzYzLuGevattiX66unrCWPmC+UVOvr07+cVXTHH2+pkxDVk/Bi
MKgfeq9C1Bdk9qFQ5oWqf23RZsKntf1HVDfh+xuN8y+NMQjT4w8cgp2E2dXJGwLn
GD+VHVzeesW+OP2lUUUMJlcsez+llis6p1ZKyaAZ2IeemY78jVEmdN1FGgIulQtL
cGJ1qYztAgMBAAGjgY8wgYwwDAYDVR0TBAUwAwEB/zAdBgNVHQ4EFgQU8RfzaVln
W/iaG6I8kTPlWNOOVeYwHwYDVR0jBBgwFoAUvfXIyj2AOB7wHTwPmIZt8h6iLMIw
PAYDVR0RBDUwM4INbGlicHJvbmV0Lm9yZ4IRd3d3LmxpYnByb25ldC5vcmeCDyou
bGlicHJvbmV0Lm9yZzANBgkqhkiG9w0BAQsFAAOCAgEAA6OnpTbfliyjHzHJb+ji
ItbD5obbTg+bnER/EgFwFGtvKvzxVqdhb3+35JFk20gZunb0EK9fPaJwhqJiAeSe
jKatd1/6ZgnU2/miU3tWFsXroMWjD5bsdNjEGy+GFD5M+FyR0exvFGU95hZlKHhm
vRb0gI12NrumHuclGq3i4qWfXi2R0vYG8wRdXLQpjB4VgvDbi1Cc7tldIqX2zCK/
d207o2ZwEem5OfgGF1pcZ4JSUTXAohC+Nd5x9q19EJhvzO7DzDAYAxuBJ1MJqePg
4R8YJyR9z9GHG9KiGxqzhfImO3wyspj25YvNuyIiG+D2glz7T0lRV37Zzo8lwJTu
eDRRRrv0eJktuZe7TfOtZzrrUUnxBEu1tA8MdCmbiDgllag/BPkSXrdBOJGeCrok
6c7KB8JvVzHJYNBfIB4ipVmObWAbX8UK96p158Yf4tU87SxJl1B+waSlQIGquDcP
QS1Jwle+qggx6/DsQJOOPu1fVqS0hQKVsWBALGcrH0qA3Q54G1EObN/suxvqXe0v
KpSq9n1qX95HMrhJmU1JPm7nVEVr9I/eoZRjsK0ILKXqwKIK8f9EERTMYY5jpOvI
WXc7WmMwimfQozPmHGRPHD73T4XAfY9o6QsXbAn236jM/kMamT/esTS4ISO6biMZ
OSzyJvOznpIMWUYKnLE2pIo=
-----END CERTIFICATE-----
