Certificate:
    Data:
        Version: 3 (0x2)
        Serial Number: 3 (0x3)
    Signature Algorithm: sha256WithRSAEncryption
        Issuer: C=CN, ST=Beijing, L=Beijing, O=P.R.O., OU=IT, CN=libpronet.org
        Validity
            Not Before: May 20 00:00:00 2020 GMT
            Not After : May 20 00:00:00 2050 GMT
        Subject: C=CN, ST=Beijing, L=Beijing, O=P.R.O., OU=IT, CN=libpronet.org
        Subject Public Key Info:
            Public Key Algorithm: rsaEncryption
                Public-Key: (4096 bit)
                Modulus:
                    00:b6:70:af:9a:0f:6e:a1:a9:68:2b:d9:6b:dd:8c:
                    85:02:d9:53:22:bf:16:7c:2f:cb:ab:df:95:0a:15:
                    88:a4:65:c8:d5:bc:f3:3c:81:5f:f4:3e:41:62:40:
                    7b:aa:ff:2d:e6:67:87:01:5b:da:ba:bf:dc:47:c5:
                    92:e7:bc:64:d5:85:96:48:0c:06:78:5d:46:cb:f2:
                    70:73:a5:ea:2d:96:fd:83:01:1b:2e:1d:fb:ff:a6:
                    99:75:44:b8:2f:3a:3f:ac:df:4e:5a:42:08:01:32:
                    8b:08:0b:9d:76:2b:e3:b9:02:1b:3f:0f:96:e3:1e:
                    63:d4:5c:05:e7:a9:81:fe:e0:89:b9:17:73:47:5c:
                    93:68:96:d3:18:b0:b3:af:53:04:f7:5c:20:fc:46:
                    3e:a8:aa:57:44:6f:f5:c1:ed:16:f1:7e:cd:94:8d:
                    e1:b7:34:01:af:7d:42:f3:d0:41:89:87:ab:19:35:
                    5b:d5:70:b6:f1:25:32:a0:e1:aa:64:bc:21:93:97:
                    23:72:80:5e:7f:49:5e:55:47:7c:71:63:b8:ed:19:
                    14:8b:30:19:2e:cd:4f:ac:7e:c5:a1:63:5d:f9:16:
                    ee:2e:b9:ca:34:b5:75:06:e7:6e:ff:e7:4d:5a:25:
                    da:18:af:55:95:62:85:95:e6:b9:68:82:b5:fe:60:
                    5d:28:ec:45:c4:58:34:3b:fc:4f:6f:83:cb:47:97:
                    97:b4:ec:b4:8d:73:35:05:b5:d2:1f:e2:a5:79:83:
                    a0:07:ee:7a:b0:9a:09:22:f8:98:a7:e7:22:35:0f:
                    a9:04:16:7f:ed:a4:9c:4b:83:c1:28:8a:67:cb:9c:
                    c3:d7:04:4a:54:2b:bc:8b:ad:c5:f7:26:6e:99:66:
                    9f:8b:68:c0:29:bc:d9:16:08:66:07:2f:36:4b:45:
                    13:98:61:64:55:02:43:bd:78:0f:77:94:0e:ab:2a:
                    a5:d3:ab:af:bd:cd:78:e4:aa:63:33:f1:1f:b7:ee:
                    7f:a2:3a:73:7e:d0:97:e9:66:e5:5c:8f:29:20:28:
                    20:64:a2:19:15:9c:b2:4b:1c:bd:76:ab:79:b9:f4:
                    2a:5b:8f:4f:0e:bf:5f:26:9c:f2:2f:44:e2:17:97:
                    16:db:09:c6:6e:88:00:51:bf:50:01:0c:19:fe:7d:
                    80:9e:49:10:da:de:ed:00:ee:aa:29:8d:93:de:df:
                    09:27:08:3b:ad:dd:3a:ea:6e:c5:ee:80:49:42:32:
                    6d:da:5b:88:5d:8d:ab:69:61:3d:7a:a2:0f:4d:8f:
                    a6:cd:32:c5:f1:2e:9f:8e:85:84:af:ae:97:b6:e0:
                    c3:55:fd:b8:5d:a3:72:e9:7e:aa:53:05:7b:21:29:
                    c6:00:c9
                Exponent: 65537 (0x10001)
        X509v3 extensions:
            X509v3 Basic Constraints: 
                CA:FALSE
            X509v3 Subject Key Identifier: 
                77:CE:70:DB:35:16:97:71:6B:D2:4F:58:4E:15:9E:F3:09:2B:4D:E6
            X509v3 Authority Key Identifier: 
                keyid:F1:17:F3:69:59:67:5B:F8:9A:1B:A2:3C:91:33:E5:58:D3:8E:55:E6

            X509v3 Subject Alternative Name: 
                DNS:libpronet.org, DNS:www.libpronet.org, DNS:*.libpronet.org
    Signature Algorithm: sha256WithRSAEncryption
         08:a1:fd:17:22:62:37:2b:d2:a3:e2:71:fa:cf:00:1f:b8:a3:
         bc:29:ad:33:ea:96:96:ba:8a:26:30:3e:22:6c:c9:2d:13:3d:
         24:22:61:29:a8:4c:fc:44:84:77:33:ae:3a:f9:a7:e0:16:4c:
         a1:4b:d9:fd:9f:d3:bf:15:58:41:ad:a7:7f:03:88:0a:74:73:
         85:49:76:3d:34:1b:23:62:4a:42:4d:23:20:7a:dc:0f:6e:44:
         6f:52:fd:b3:56:ff:1f:50:64:32:4b:ac:bd:1d:24:cd:9a:81:
         b2:b1:bc:52:28:68:33:44:48:0e:a3:01:c7:bf:62:9a:5c:4d:
         2f:ac:a9:17:81:7e:dd:b1:34:83:fd:0c:7b:9f:8c:69:38:26:
         0b:02:0e:df:e5:57:b0:a4:16:97:55:3b:35:a1:e8:9d:17:a0:
         2f:e4:c3:94:d9:dd:81:a8:87:84:d7:1f:36:14:79:82:77:c6:
         0d:f5:3e:1a:c0:6b:2e:47:a3:e3:6f:58:ed:50:d5:b1:b0:91:
         36:c0:81:7b:dd:f3:e5:5f:8c:d4:fb:c3:d1:98:37:7b:bc:db:
         76:07:2d:b7:a5:84:83:cf:c4:9e:29:23:6c:5c:8a:3f:59:19:
         04:a5:33:a8:7a:0e:4f:8a:34:29:8a:0a:70:9c:5f:96:d0:a3:
         c0:36:be:a6:71:2f:6b:2f:79:58:46:19:55:34:e4:89:29:b2:
         4e:66:7d:22:1b:cf:89:86:dc:35:dd:e7:be:c9:a2:db:7f:63:
         79:f2:a0:02:02:4c:95:e8:95:e8:d8:43:81:2e:2d:fc:49:c1:
         e3:d2:fd:76:31:1f:8c:d0:0e:a9:d9:61:95:52:6b:a3:6f:e2:
         c8:33:94:7e:73:d4:4a:c0:67:d9:18:84:42:aa:bf:a0:a4:02:
         3e:17:13:fc:1f:75:16:78:7b:c2:8c:40:9d:5f:fc:5f:82:bd:
         5d:2a:81:4f:a9:b6:48:fd:5e:bb:a5:fd:dd:2d:56:f7:c2:26:
         13:95:49:35:25:65:b1:5f:30:ea:5a:2c:3d:b6:b6:7a:b3:3f:
         37:33:41:7a:eb:35:63:ab:4d:ec:4d:55:ed:39:7c:50:b6:62:
         3d:4e:e8:64:72:f9:4b:26:3e:ef:c6:36:09:e7:b6:d8:36:c2:
         b0:4b:6d:5e:21:25:06:55:e4:1c:74:dc:d4:eb:ff:fa:68:61:
         06:f7:06:7e:d3:d6:70:36:0f:6d:39:b7:b5:50:a7:7d:fc:38:
         12:41:43:9b:ed:c1:4c:eb:61:3d:c7:0b:e5:71:0c:28:c0:50:
         9e:35:aa:20:04:ef:cb:cd:5d:69:14:2a:48:be:38:c9:92:26:
         82:43:aa:6d:a2:f5:10:b5
-----BEGIN CERTIFICATE-----
MIIF2jCCA8KgAwIBAgIBAzANBgkqhkiG9w0BAQsFADBnMQswCQYDVQQGEwJDTjEQ
MA4GA1UECAwHQmVpamluZzEQMA4GA1UEBwwHQmVpamluZzEPMA0GA1UECgwGUC5S
Lk8uMQswCQYDVQQLDAJJVDEWMBQGA1UEAwwNbGlicHJvbmV0Lm9yZzAiGA8yMDIw
MDUyMDAwMDAwMFoYDzIwNTAwNTIwMDAwMDAwWjBnMQswCQYDVQQGEwJDTjEQMA4G
A1UECAwHQmVpamluZzEQMA4GA1UEBwwHQmVpamluZzEPMA0GA1UECgwGUC5SLk8u
MQswCQYDVQQLDAJJVDEWMBQGA1UEAwwNbGlicHJvbmV0Lm9yZzCCAiIwDQYJKoZI
hvcNAQEBBQADggIPADCCAgoCggIBALZwr5oPbqGpaCvZa92MhQLZUyK/Fnwvy6vf
lQoViKRlyNW88zyBX/Q+QWJAe6r/LeZnhwFb2rq/3EfFkue8ZNWFlkgMBnhdRsvy
cHOl6i2W/YMBGy4d+/+mmXVEuC86P6zfTlpCCAEyiwgLnXYr47kCGz8PluMeY9Rc
Beepgf7gibkXc0dck2iW0xiws69TBPdcIPxGPqiqV0Rv9cHtFvF+zZSN4bc0Aa99
QvPQQYmHqxk1W9VwtvElMqDhqmS8IZOXI3KAXn9JXlVHfHFjuO0ZFIswGS7NT6x+
xaFjXfkW7i65yjS1dQbnbv/nTVol2hivVZVihZXmuWiCtf5gXSjsRcRYNDv8T2+D
y0eXl7TstI1zNQW10h/ipXmDoAfuerCaCSL4mKfnIjUPqQQWf+2knEuDwSiKZ8uc
w9cESlQrvIutxfcmbplmn4towCm82RYIZgcvNktFE5hhZFUCQ714D3eUDqsqpdOr
r73NeOSqYzPxH7fuf6I6c37Ql+lm5VyPKSAoIGSiGRWcskscvXarebn0KluPTw6/
Xyac8i9E4heXFtsJxm6IAFG/UAEMGf59gJ5JENre7QDuqimNk97fCScIO63dOupu
xe6ASUIybdpbiF2Nq2lhPXqiD02Pps0yxfEun46FhK+ul7bgw1X9uF2jcul+qlMF
eyEpxgDJAgMBAAGjgYwwgYkwCQYDVR0TBAIwADAdBgNVHQ4EFgQUd85w2zUWl3Fr
0k9YThWe8wkrTeYwHwYDVR0jBBgwFoAU8RfzaVlnW/iaG6I8kTPlWNOOVeYwPAYD
VR0RBDUwM4INbGlicHJvbmV0Lm9yZ4IRd3d3LmxpYnByb25ldC5vcmeCDyoubGli
cHJvbmV0Lm9yZzANBgkqhkiG9w0BAQsFAAOCAgEACKH9FyJiNyvSo+Jx+s8AH7ij
vCmtM+qWlrqKJjA+ImzJLRM9JCJhKahM/ESEdzOuOvmn4BZMoUvZ/Z/TvxVYQa2n
fwOICnRzhUl2PTQbI2JKQk0jIHrcD25Eb1L9s1b/H1BkMkusvR0kzZqBsrG8Uiho
M0RIDqMBx79imlxNL6ypF4F+3bE0g/0Me5+MaTgmCwIO3+VXsKQWl1U7NaHonReg
L+TDlNndgaiHhNcfNhR5gnfGDfU+GsBrLkej429Y7VDVsbCRNsCBe93z5V+M1PvD
0Zg3e7zbdgctt6WEg8/EnikjbFyKP1kZBKUzqHoOT4o0KYoKcJxfltCjwDa+pnEv
ay95WEYZVTTkiSmyTmZ9IhvPiYbcNd3nvsmi239jefKgAgJMleiV6NhDgS4t/EnB
49L9djEfjNAOqdlhlVJro2/iyDOUfnPUSsBn2RiEQqq/oKQCPhcT/B91Fnh7woxA
nV/8X4K9XSqBT6m2SP1eu6X93S1W98ImE5VJNSVlsV8w6losPba2erM/NzNBeus1
Y6tN7E1V7Tl8ULZiPU7oZHL5SyY+78Y2Cee22DbCsEttXiElBlXkHHTc1Ov/+mhh
BvcGftPWcDYPbTm3tVCnffw4EkFDm+3BTOthPccL5XEMKMBQnjWqIATvy81daRQq
SL44yZImgkOqbaL1ELU=
-----END CERTIFICATE-----
